target datalayout = "e-m:e-p270:32:32-p271:32:32-p272:64:64-i64:64-i128:128-f80:128-n8:16:32:64-S128"
target triple = "x86_64-pc-linux-gnu"

%struct._lv_lru_rb_t = type { %struct._lv_cache_t, %struct._lv_rb_t, %struct.lv_ll_t, ptr }
%struct._lv_cache_t = type { ptr, i32, i32, i32, %struct._lv_cache_ops_t, i32, ptr }
%struct._lv_cache_ops_t = type { ptr, ptr, ptr }
%struct._lv_rb_t = type { ptr, ptr, i64 }
%struct.lv_ll_t = type { i32, ptr, ptr }
%struct._lv_rb_node_t = type { ptr, ptr, ptr, i32, ptr }

; Function Attrs: nounwind uwtable
define internal ptr @get_victim_cb(ptr noundef %0, ptr noundef %1) #0 {
  %3 = alloca ptr, align 8
  %4 = alloca ptr, align 8
  %5 = alloca ptr, align 8
  %6 = alloca ptr, align 8
  %7 = alloca ptr, align 8
  %8 = alloca ptr, align 8
  %9 = alloca ptr, align 8
  %10 = alloca i32, align 4
  store ptr %0, ptr %4, align 8, !tbaa !3
  store ptr %1, ptr %5, align 8, !tbaa !3
  call void @llvm.lifetime.start.p0(i64 8, ptr %6) #4
  %11 = load ptr, ptr %4, align 8, !tbaa !3
  store ptr %11, ptr %6, align 8, !tbaa !3
  br label %12

12:                                               ; preds = %2
  %13 = load ptr, ptr %6, align 8, !tbaa !3
  %14 = icmp ne ptr %13, null
  br i1 %14, label %21, label %15

15:                                               ; preds = %12
  br label %16

16:                                               ; preds = %15
  br label %17

17:                                               ; preds = %16
  br label %18

18:                                               ; preds = %17
  br label %19

19:                                               ; preds = %20, %18
  br label %20

20:                                               ; preds = %19
  br label %19

21:                                               ; preds = %12
  br label %22

22:                                               ; preds = %21
  br label %23

23:                                               ; preds = %22
  call void @llvm.lifetime.start.p0(i64 8, ptr %7) #4
  %24 = load ptr, ptr %6, align 8, !tbaa !3
  %25 = getelementptr inbounds nuw %struct._lv_lru_rb_t, ptr %24, i32 0, i32 2
  %26 = call ptr @lv_ll_get_tail(ptr noundef %25)
  store ptr %26, ptr %7, align 8, !tbaa !3
  br label %27

27:                                               ; preds = %49, %23
  %28 = load ptr, ptr %7, align 8, !tbaa !3
  %29 = icmp ne ptr %28, null
  br i1 %29, label %30, label %54

30:                                               ; preds = %27
  call void @llvm.lifetime.start.p0(i64 8, ptr %8) #4
  %31 = load ptr, ptr %7, align 8, !tbaa !3
  %32 = load ptr, ptr %31, align 8, !tbaa !3
  store ptr %32, ptr %8, align 8, !tbaa !3
  call void @llvm.lifetime.start.p0(i64 8, ptr %9) #4
  %33 = load ptr, ptr %8, align 8, !tbaa !3
  %34 = getelementptr inbounds nuw %struct._lv_rb_node_t, ptr %33, i32 0, i32 4
  %35 = load ptr, ptr %34, align 8, !tbaa !21
  %36 = load ptr, ptr %4, align 8, !tbaa !3
  %37 = getelementptr inbounds nuw %struct._lv_cache_t, ptr %36, i32 0, i32 1
  %38 = load i32, ptr %37, align 8, !tbaa !23
  %39 = call ptr @lv_cache_entry_get_entry(ptr noundef %35, i32 noundef %38)
  store ptr %39, ptr %9, align 8, !tbaa !3
  %40 = load ptr, ptr %9, align 8, !tbaa !3
  %41 = call i32 @lv_cache_entry_get_ref(ptr noundef %40)
  %42 = icmp eq i32 %41, 0
  br i1 %42, label %43, label %45

43:                                               ; preds = %30
  %44 = load ptr, ptr %9, align 8, !tbaa !3
  store ptr %44, ptr %3, align 8
  store i32 1, ptr %10, align 4
  br label %46

45:                                               ; preds = %30
  store i32 0, ptr %10, align 4
  br label %46

46:                                               ; preds = %45, %43
  call void @llvm.lifetime.end.p0(i64 8, ptr %9) #4
  call void @llvm.lifetime.end.p0(i64 8, ptr %8) #4
  %47 = load i32, ptr %10, align 4
  switch i32 %47, label %55 [
    i32 0, label %48
  ]

48:                                               ; preds = %46
  br label %49

49:                                               ; preds = %48
  %50 = load ptr, ptr %6, align 8, !tbaa !3
  %51 = getelementptr inbounds nuw %struct._lv_lru_rb_t, ptr %50, i32 0, i32 2
  %52 = load ptr, ptr %7, align 8, !tbaa !3
  %53 = call ptr @lv_ll_get_prev(ptr noundef %51, ptr noundef %52)
  store ptr %53, ptr %7, align 8, !tbaa !3
  br label %27, !llvm.loop !28

54:                                               ; preds = %27
  store ptr null, ptr %3, align 8
  store i32 1, ptr %10, align 4
  br label %55

55:                                               ; preds = %54, %46
  call void @llvm.lifetime.end.p0(i64 8, ptr %7) #4
  call void @llvm.lifetime.end.p0(i64 8, ptr %6) #4
  %56 = load ptr, ptr %3, align 8
  ret ptr %56
}