; Function Attrs: nounwind uwtable
define internal noundef ptr @get_victim_cb(ptr noundef %0, ptr nocapture readnone %1) #0 {
  %.not = icmp eq ptr %0, null
  br i1 %.not, label %.preheader, label %3

.preheader:                                       ; preds = %2, %.preheader
  br label %.preheader

3:                                                ; preds = %2
  %4 = getelementptr inbounds nuw i8, ptr %0, i64 88
  %5 = tail call ptr @lv_ll_get_tail(ptr noundef nonnull %4) #5
  %.not1517 = icmp eq ptr %5, null
  br i1 %.not1517, label %._crit_edge, label %.lr.ph

.lr.ph:                                           ; preds = %3
  %6 = getelementptr inbounds nuw i8, ptr %0, i64 8
  br label %7

7:                                                ; preds = %.lr.ph, %14
  %.01318 = phi ptr [ %5, %.lr.ph ], [ %15, %14 ]
  %8 = load ptr, ptr %.01318, align 8, !tbaa !20
  %9 = getelementptr inbounds nuw i8, ptr %8, i64 32
  %10 = load ptr, ptr %9, align 8, !tbaa !21
  %11 = load i32, ptr %6, align 8, !tbaa !23
  %12 = tail call ptr @lv_cache_entry_get_entry(ptr noundef %10, i32 noundef %11) #5
  %13 = tail call i32 @lv_cache_entry_get_ref(ptr noundef %12) #5
  %.not16 = icmp eq i32 %13, 0
  br i1 %.not16, label %._crit_edge, label %14

14:                                               ; preds = %7
  %15 = tail call ptr @lv_ll_get_prev(ptr noundef nonnull %4, ptr noundef nonnull %.01318) #5
  %.not15 = icmp eq ptr %15, null
  br i1 %.not15, label %._crit_edge, label %7, !llvm.loop !28

._crit_edge:                                      ; preds = %7, %14, %3
  %.2 = phi ptr [ null, %3 ], [ null, %14 ], [ %12, %7 ]
  ret ptr %.2
}